target datalayout = "e-m:e-p270:32:32-p271:32:32-p272:64:64-i64:64-i128:128-f80:128-n8:16:32:64-S128"
target triple = "x86_64-pc-linux-gnu"

; Function Attrs: nounwind uwtable
define i32 @pmix_hwloc_get_cpuset_size(ptr noundef %0, ptr noundef %1) #0 {
  %3 = alloca ptr, align 8
  %4 = alloca ptr, align 8
  %5 = alloca ptr, align 8
  store ptr %0, ptr %3, align 8, !tbaa !3
  store ptr %1, ptr %4, align 8, !tbaa !31
  call void @llvm.lifetime.start.p0(i64 8, ptr %5) #8
  %6 = call noalias ptr @hwloc_bitmap_alloc()
  store ptr %6, ptr %5, align 8, !tbaa !32
  %7 = load ptr, ptr %5, align 8, !tbaa !32
  call void @hwloc_bitmap_fill(ptr noundef %7)
  %8 = load ptr, ptr %5, align 8, !tbaa !32
  %9 = call i32 @hwloc_bitmap_weight(ptr noundef %8) #9
  %10 = sext i32 %9 to i64
  %11 = load ptr, ptr %4, align 8, !tbaa !31
  store i64 %10, ptr %11, align 8, !tbaa !27
  %12 = load ptr, ptr %5, align 8, !tbaa !32
  call void @hwloc_bitmap_free(ptr noundef %12)
  call void @llvm.lifetime.end.p0(i64 8, ptr %5) #8
  ret i32 0
}