; Function Attrs: nounwind uwtable
define noundef i32 @pmix_hwloc_get_cpuset_size(ptr noundef readnone captures(none) %0, ptr noundef writeonly captures(none) initializes((0, 8)) %1) local_unnamed_addr #0 {
  %3 = tail call noalias ptr @hwloc_bitmap_alloc() #7
  tail call void @hwloc_bitmap_fill(ptr noundef %3) #7
  %4 = tail call i32 @hwloc_bitmap_weight(ptr noundef %3) #8
  %5 = sext i32 %4 to i64
  store i64 %5, ptr %1, align 8, !tbaa !28
  tail call void @hwloc_bitmap_free(ptr noundef %3) #7
  ret i32 0
}